; Function Attrs: null_pointer_is_valid sspstrong uwtable
define internal void @dissect_zcl_illum_meas_attr_data(ptr noundef %0, ptr noundef %1, ptr noundef %2, i16 noundef zeroext %3, i32 noundef %4, i1 noundef zeroext %5) #0 {
  switch i16 %3, label %37 [
    i16 0, label %7
    i16 1, label %13
    i16 2, label %19
    i16 3, label %25
    i16 4, label %31
  ]

7:                                                ; preds = %6
  %8 = load i32, ptr @hf_zbee_zcl_illum_meas_measured_value, align 4
  %9 = load i32, ptr %2, align 4
  %10 = tail call ptr @proto_tree_add_item(ptr noundef %0, i32 noundef %8, ptr noundef %1, i32 noundef %9, i32 noundef 2, i32 noundef -2147483648)
  %11 = load i32, ptr %2, align 4
  %12 = add i32 %11, 2
  store i32 %12, ptr %2, align 4
  br label %38

13:                                               ; preds = %6
  %14 = load i32, ptr @hf_zbee_zcl_illum_meas_min_measured_value, align 4
  %15 = load i32, ptr %2, align 4
  %16 = tail call ptr @proto_tree_add_item(ptr noundef %0, i32 noundef %14, ptr noundef %1, i32 noundef %15, i32 noundef 2, i32 noundef -2147483648)
  %17 = load i32, ptr %2, align 4
  %18 = add i32 %17, 2
  store i32 %18, ptr %2, align 4
  br label %38

19:                                               ; preds = %6
  %20 = load i32, ptr @hf_zbee_zcl_illum_meas_max_measured_value, align 4
  %21 = load i32, ptr %2, align 4
  %22 = tail call ptr @proto_tree_add_item(ptr noundef %0, i32 noundef %20, ptr noundef %1, i32 noundef %21, i32 noundef 2, i32 noundef -2147483648)
  %23 = load i32, ptr %2, align 4
  %24 = add i32 %23, 2
  store i32 %24, ptr %2, align 4
  br label %38

25:                                               ; preds = %6
  %26 = load i32, ptr @hf_zbee_zcl_illum_meas_tolerance, align 4
  %27 = load i32, ptr %2, align 4
  %28 = tail call ptr @proto_tree_add_item(ptr noundef %0, i32 noundef %26, ptr noundef %1, i32 noundef %27, i32 noundef 2, i32 noundef -2147483648)
  %29 = load i32, ptr %2, align 4
  %30 = add i32 %29, 2
  store i32 %30, ptr %2, align 4
  br label %38

31:                                               ; preds = %6
  %32 = load i32, ptr @hf_zbee_zcl_illum_meas_sensor_type, align 4
  %33 = load i32, ptr %2, align 4
  %34 = tail call ptr @proto_tree_add_item(ptr noundef %0, i32 noundef %32, ptr noundef %1, i32 noundef %33, i32 noundef 1, i32 noundef -2147483648)
  %35 = load i32, ptr %2, align 4
  %36 = add i32 %35, 1
  store i32 %36, ptr %2, align 4
  br label %38

37:                                               ; preds = %6
  tail call void @dissect_zcl_attr_data(ptr noundef %1, ptr noundef %0, ptr noundef %2, i32 noundef %4, i1 noundef zeroext %5)
  br label %38

38:                                               ; preds = %37, %31, %25, %19, %13, %7
  ret void
}